; ModuleID = 'source-C-CXX/24/1042.cpp'
source_filename = "source-C-CXX/24/1042.cpp"
target datalayout = "e-m:e-p270:32:32-p271:32:32-p272:64:64-i64:64-f80:128-n8:16:32:64-S128"
target triple = "x86_64-pc-linux-gnu"

%"class.std::ios_base::Init" = type { i8 }
%"class.std::basic_istream" = type { i32 (...)**, i64, %"class.std::basic_ios" }
%"class.std::basic_ios" = type { %"class.std::ios_base", %"class.std::basic_ostream"*, i8, i8, %"class.std::basic_streambuf"*, %"class.std::ctype"*, %"class.std::num_put"*, %"class.std::num_get"* }
%"class.std::ios_base" = type { i32 (...)**, i64, i64, i32, i32, i32, %"struct.std::ios_base::_Callback_list"*, %"struct.std::ios_base::_Words", [8 x %"struct.std::ios_base::_Words"], i32, %"struct.std::ios_base::_Words"*, %"class.std::locale" }
%"struct.std::ios_base::_Callback_list" = type { %"struct.std::ios_base::_Callback_list"*, void (i32, %"class.std::ios_base"*, i32)*, i32, i32 }
%"struct.std::ios_base::_Words" = type { i8*, i64 }
%"class.std::locale" = type { %"class.std::locale::_Impl"* }
%"class.std::locale::_Impl" = type { i32, %"class.std::locale::facet"**, i64, %"class.std::locale::facet"**, i8** }
%"class.std::locale::facet" = type <{ i32 (...)**, i32, [4 x i8] }>
%"class.std::basic_ostream" = type { i32 (...)**, %"class.std::basic_ios" }
%"class.std::basic_streambuf" = type { i32 (...)**, i8*, i8*, i8*, i8*, i8*, i8*, %"class.std::locale" }
%"class.std::ctype" = type <{ %"class.std::locale::facet.base", [4 x i8], %struct.__locale_struct*, i8, [7 x i8], i32*, i32*, i16*, i8, [256 x i8], [256 x i8], i8, [6 x i8] }>
%"class.std::locale::facet.base" = type <{ i32 (...)**, i32 }>
%struct.__locale_struct = type { [13 x %struct.__locale_data*], i16*, i32*, i32*, [13 x i8*] }
%struct.__locale_data = type opaque
%"class.std::num_put" = type { %"class.std::locale::facet.base", [4 x i8] }
%"class.std::num_get" = type { %"class.std::locale::facet.base", [4 x i8] }

@_ZStL8__ioinit = internal global %"class.std::ios_base::Init" zeroinitializer, align 1
@__dso_handle = external hidden global i8
@_ZSt3cin = external global %"class.std::basic_istream", align 8
@_ZSt4cout = external global %"class.std::basic_ostream", align 8
@llvm.global_ctors = appending global [1 x { i32, void ()*, i8* }] [{ i32, void ()*, i8* } { i32 65535, void ()* @_GLOBAL__sub_I_1042.cpp, i8* null }]

declare void @_ZNSt8ios_base4InitC1Ev(%"class.std::ios_base::Init"* nonnull align 1 dereferenceable(1)) unnamed_addr #0

; Function Attrs: nounwind
declare void @_ZNSt8ios_base4InitD1Ev(%"class.std::ios_base::Init"* nonnull align 1 dereferenceable(1)) unnamed_addr #1

; Function Attrs: nofree nounwind
declare i32 @__cxa_atexit(void (i8*)*, i8*, i8*) local_unnamed_addr #2

; Function Attrs: mustprogress norecurse sspstrong uwtable
define dso_local i32 @main() local_unnamed_addr #3 {
  %1 = alloca [101 x i32], align 16
  %2 = alloca i32, align 4
  %3 = bitcast [101 x i32]* %1 to i8*
  call void @llvm.lifetime.start.p0i8(i64 404, i8* nonnull %3) #7
  call void @llvm.memset.p0i8.i64(i8* noundef nonnull align 16 dereferenceable(404) %3, i8 0, i64 404, i1 false)
  %4 = bitcast i32* %2 to i8*
  call void @llvm.lifetime.start.p0i8(i64 4, i8* nonnull %4) #7
  %5 = call nonnull align 8 dereferenceable(16) %"class.std::basic_istream"* @_ZNSirsERi(%"class.std::basic_istream"* nonnull align 8 dereferenceable(16) @_ZSt3cin, i32* nonnull align 4 dereferenceable(4) %2)
  %6 = getelementptr inbounds [101 x i32], [101 x i32]* %1, i64 0, i64 0
  %7 = load i32, i32* %2, align 4, !tbaa !5
  %8 = icmp slt i32 %7, 1
  br i1 %8, label %20, label %9

9:                                                ; preds = %0
  %10 = add nuw i32 %7, 1
  %11 = zext i32 %10 to i64
  br label %12

12:                                               ; preds = %9, %33
  %13 = phi i64 [ 1, %9 ], [ %34, %33 ]
  %14 = phi i32 [ 1, %9 ], [ %16, %33 ]
  %15 = shl nsw i32 %14, 1
  %16 = srem i32 %15, 10
  %17 = icmp eq i64 %13, 1
  br i1 %17, label %33, label %18

18:                                               ; preds = %12
  %19 = sdiv i32 %14, 5
  br label %22

20:                                               ; preds = %33, %0
  %21 = phi i32 [ 1, %0 ], [ %16, %33 ]
  store i32 %21, i32* %6, align 16, !tbaa !5
  br label %36

22:                                               ; preds = %18, %22
  %23 = phi i32 [ %29, %22 ], [ %19, %18 ]
  %24 = phi i64 [ %31, %22 ], [ 1, %18 ]
  %25 = getelementptr inbounds [101 x i32], [101 x i32]* %1, i64 0, i64 %24
  %26 = load i32, i32* %25, align 4, !tbaa !5
  %27 = shl nsw i32 %26, 1
  %28 = add nsw i32 %27, %23
  %29 = sdiv i32 %28, 10
  %30 = srem i32 %28, 10
  store i32 %30, i32* %25, align 4, !tbaa !5
  %31 = add nuw nsw i64 %24, 1
  %32 = icmp eq i64 %31, %13
  br i1 %32, label %33, label %22, !llvm.loop !9

33:                                               ; preds = %22, %12
  %34 = add nuw nsw i64 %13, 1
  %35 = icmp eq i64 %34, %11
  br i1 %35, label %20, label %12, !llvm.loop !12

36:                                               ; preds = %79, %20
  %37 = phi i32 [ 100, %20 ], [ %80, %79 ]
  %38 = zext i32 %37 to i64
  %39 = getelementptr inbounds [101 x i32], [101 x i32]* %1, i64 0, i64 %38
  %40 = load i32, i32* %39, align 16, !tbaa !5
  %41 = icmp eq i32 %40, 0
  br i1 %41, label %58, label %42

42:                                               ; preds = %73, %67, %62, %36
  %43 = phi i32 [ %37, %36 ], [ %59, %62 ], [ %68, %67 ], [ %74, %73 ]
  %44 = phi i32 [ %40, %36 ], [ %65, %62 ], [ %71, %67 ], [ %77, %73 ]
  %45 = icmp sgt i32 %43, -1
  br i1 %45, label %46, label %61

46:                                               ; preds = %42
  %47 = call nonnull align 8 dereferenceable(8) %"class.std::basic_ostream"* @_ZNSolsEi(%"class.std::basic_ostream"* nonnull align 8 dereferenceable(8) @_ZSt4cout, i32 %44)
  %48 = icmp eq i32 %43, 0
  br i1 %48, label %61, label %49, !llvm.loop !13

49:                                               ; preds = %46
  %50 = zext i32 %43 to i64
  br label %51

51:                                               ; preds = %49, %51
  %52 = phi i64 [ %53, %51 ], [ %50, %49 ]
  %53 = add nsw i64 %52, -1
  %54 = getelementptr inbounds [101 x i32], [101 x i32]* %1, i64 0, i64 %53
  %55 = load i32, i32* %54, align 4, !tbaa !5
  %56 = call nonnull align 8 dereferenceable(8) %"class.std::basic_ostream"* @_ZNSolsEi(%"class.std::basic_ostream"* nonnull align 8 dereferenceable(8) @_ZSt4cout, i32 %55)
  %57 = icmp sgt i64 %52, 1
  br i1 %57, label %51, label %61, !llvm.loop !13

58:                                               ; preds = %36
  %59 = add nsw i32 %37, -1
  %60 = icmp eq i32 %37, 0
  br i1 %60, label %61, label %62, !llvm.loop !14

61:                                               ; preds = %58, %51, %46, %42
  call void @llvm.lifetime.end.p0i8(i64 4, i8* nonnull %4) #7
  call void @llvm.lifetime.end.p0i8(i64 404, i8* nonnull %3) #7
  ret i32 0

62:                                               ; preds = %58
  %63 = zext i32 %59 to i64
  %64 = getelementptr inbounds [101 x i32], [101 x i32]* %1, i64 0, i64 %63
  %65 = load i32, i32* %64, align 4, !tbaa !5
  %66 = icmp eq i32 %65, 0
  br i1 %66, label %67, label %42

67:                                               ; preds = %62
  %68 = add nsw i32 %37, -2
  %69 = zext i32 %68 to i64
  %70 = getelementptr inbounds [101 x i32], [101 x i32]* %1, i64 0, i64 %69
  %71 = load i32, i32* %70, align 8, !tbaa !5
  %72 = icmp eq i32 %71, 0
  br i1 %72, label %73, label %42

73:                                               ; preds = %67
  %74 = add nsw i32 %37, -3
  %75 = zext i32 %74 to i64
  %76 = getelementptr inbounds [101 x i32], [101 x i32]* %1, i64 0, i64 %75
  %77 = load i32, i32* %76, align 4, !tbaa !5
  %78 = icmp eq i32 %77, 0
  br i1 %78, label %79, label %42

79:                                               ; preds = %73
  %80 = add nsw i32 %37, -4
  br label %36
}

; Function Attrs: argmemonly mustprogress nofree nosync nounwind willreturn
declare void @llvm.lifetime.start.p0i8(i64 immarg, i8* nocapture) #4

; Function Attrs: argmemonly mustprogress nofree nounwind willreturn writeonly
declare void @llvm.memset.p0i8.i64(i8* nocapture writeonly, i8, i64, i1 immarg) #5

declare nonnull align 8 dereferenceable(16) %"class.std::basic_istream"* @_ZNSirsERi(%"class.std::basic_istream"* nonnull align 8 dereferenceable(16), i32* nonnull align 4 dereferenceable(4)) local_unnamed_addr #0

declare nonnull align 8 dereferenceable(8) %"class.std::basic_ostream"* @_ZNSolsEi(%"class.std::basic_ostream"* nonnull align 8 dereferenceable(8), i32) local_unnamed_addr #0

; Function Attrs: argmemonly mustprogress nofree nosync nounwind willreturn
declare void @llvm.lifetime.end.p0i8(i64 immarg, i8* nocapture) #4

; Function Attrs: sspstrong uwtable
define internal void @_GLOBAL__sub_I_1042.cpp() #6 section ".text.startup" {
  tail call void @_ZNSt8ios_base4InitC1Ev(%"class.std::ios_base::Init"* nonnull align 1 dereferenceable(1) @_ZStL8__ioinit)
  %1 = tail call i32 @__cxa_atexit(void (i8*)* bitcast (void (%"class.std::ios_base::Init"*)* @_ZNSt8ios_base4InitD1Ev to void (i8*)*), i8* getelementptr inbounds (%"class.std::ios_base::Init", %"class.std::ios_base::Init"* @_ZStL8__ioinit, i64 0, i32 0), i8* nonnull @__dso_handle) #7
  ret void
}


!llvm.module.flags = !{!0, !1, !2, !3}
!llvm.ident = !{!4}

!0 = !{i32 1, !"wchar_size", i32 4}
!1 = !{i32 7, !"PIC Level", i32 2}
!2 = !{i32 7, !"PIE Level", i32 2}
!3 = !{i32 7, !"uwtable", i32 1}
!4 = !{!"clang version 13.0.0"}
!5 = !{!6, !6, i64 0}
!6 = !{!"int", !7, i64 0}
!7 = !{!"omnipotent char", !8, i64 0}
!8 = !{!"Simple C++ TBAA"}
!9 = distinct !{!9, !10, !11}
!10 = !{!"llvm.loop.mustprogress"}
!11 = !{!"llvm.loop.peeled.count", i32 1}
!12 = distinct !{!12, !10}
!13 = distinct !{!13, !10}
!14 = distinct !{!14, !10}
